target datalayout = "e-m:e-p270:32:32-p271:32:32-p272:64:64-i64:64-i128:128-f80:128-n8:16:32:64-S128"
target triple = "x86_64-pc-linux-gnu"

@ext_nids = internal global ptr @ext_nid_list, align 8

; Function Attrs: inlinehint nounwind uwtable
define internal ptr @ossl_check_X509_EXTENSION_sk_type(ptr noundef %0) #3 {
  %2 = alloca ptr, align 8
  store ptr %0, ptr %2, align 8, !tbaa !57
  %3 = load ptr, ptr %2, align 8, !tbaa !57
  ret ptr %3
}

; Function Attrs: inlinehint nounwind uwtable
define internal ptr @ossl_check_const_X509_EXTENSION_sk_type(ptr noundef %0) #3 {
  %2 = alloca ptr, align 8
  store ptr %0, ptr %2, align 8, !tbaa !57
  %3 = load ptr, ptr %2, align 8, !tbaa !57
  ret ptr %3
}

; Function Attrs: nounwind uwtable
define ptr @X509_REQ_get_extensions(ptr noundef %0) #0 {
  %2 = alloca ptr, align 8
  %3 = alloca ptr, align 8
  %4 = alloca ptr, align 8
  %5 = alloca ptr, align 8
  %6 = alloca i32, align 4
  store ptr %0, ptr %3, align 8, !tbaa !42
  call void @llvm.lifetime.start.p0(i64 8, ptr %4) #4
  store ptr null, ptr %4, align 8, !tbaa !57
  call void @llvm.lifetime.start.p0(i64 8, ptr %5) #4
  %7 = load ptr, ptr %3, align 8, !tbaa !42
  %8 = icmp eq ptr %7, null
  br i1 %8, label %12, label %9

9:                                                ; preds = %1
  %10 = load ptr, ptr @ext_nids, align 8, !tbaa !55
  %11 = icmp eq ptr %10, null
  br i1 %11, label %12, label %13

12:                                               ; preds = %9, %1
  store ptr null, ptr %2, align 8
  store i32 1, ptr %6, align 4
  br label %42

13:                                               ; preds = %9
  %14 = load ptr, ptr @ext_nids, align 8, !tbaa !55
  store ptr %14, ptr %5, align 8, !tbaa !55
  br label %15

15:                                               ; preds = %37, %13
  %16 = load ptr, ptr %5, align 8, !tbaa !55
  %17 = load i32, ptr %16, align 4, !tbaa !52
  %18 = icmp ne i32 %17, 0
  br i1 %18, label %19, label %40

19:                                               ; preds = %15
  %20 = load ptr, ptr %3, align 8, !tbaa !42
  %21 = load ptr, ptr %5, align 8, !tbaa !55
  %22 = load i32, ptr %21, align 4, !tbaa !52
  %23 = call ptr @get_extensions_by_nid(ptr noundef %20, i32 noundef %22)
  store ptr %23, ptr %4, align 8, !tbaa !57
  %24 = load ptr, ptr %4, align 8, !tbaa !57
  %25 = icmp eq ptr %24, null
  br i1 %25, label %26, label %27

26:                                               ; preds = %19
  store ptr null, ptr %2, align 8
  store i32 1, ptr %6, align 4
  br label %42

27:                                               ; preds = %19
  %28 = load ptr, ptr %4, align 8, !tbaa !57
  %29 = call ptr @ossl_check_const_X509_EXTENSION_sk_type(ptr noundef %28)
  %30 = call i32 @OPENSSL_sk_num(ptr noundef %29)
  %31 = icmp sgt i32 %30, 0
  br i1 %31, label %32, label %34

32:                                               ; preds = %27
  %33 = load ptr, ptr %4, align 8, !tbaa !57
  store ptr %33, ptr %2, align 8
  store i32 1, ptr %6, align 4
  br label %42

34:                                               ; preds = %27
  %35 = load ptr, ptr %4, align 8, !tbaa !57
  %36 = call ptr @ossl_check_X509_EXTENSION_sk_type(ptr noundef %35)
  call void @OPENSSL_sk_free(ptr noundef %36)
  br label %37

37:                                               ; preds = %34
  %38 = load ptr, ptr %5, align 8, !tbaa !55
  %39 = getelementptr inbounds nuw i32, ptr %38, i32 1
  store ptr %39, ptr %5, align 8, !tbaa !55
  br label %15, !llvm.loop !58

40:                                               ; preds = %15
  %41 = call ptr @OPENSSL_sk_new_null()
  store ptr %41, ptr %2, align 8
  store i32 1, ptr %6, align 4
  br label %42

42:                                               ; preds = %40, %32, %26, %12
  call void @llvm.lifetime.end.p0(i64 8, ptr %5) #4
  call void @llvm.lifetime.end.p0(i64 8, ptr %4) #4
  %43 = load ptr, ptr %2, align 8
  ret ptr %43
}