; Function Attrs: nounwind uwtable
define ptr @X509_REQ_get_extensions(ptr noundef readonly captures(address_is_null) %0) local_unnamed_addr #0 {
  %2 = icmp eq ptr %0, null
  %3 = load ptr, ptr @ext_nids, align 8
  %4 = icmp eq ptr %3, null
  %or.cond = select i1 %2, i1 true, i1 %4
  br i1 %or.cond, label %.loopexit, label %.preheader

.preheader:                                       ; preds = %1
  %5 = load i32, ptr %3, align 4, !tbaa !46
  %.not16 = icmp eq i32 %5, 0
  br i1 %.not16, label %._crit_edge, label %.lr.ph

.lr.ph:                                           ; preds = %.preheader, %12
  %6 = phi i32 [ %14, %12 ], [ %5, %.preheader ]
  %.017 = phi ptr [ %13, %12 ], [ %3, %.preheader ]
  %7 = tail call fastcc ptr @get_extensions_by_nid(ptr noundef %0, i32 noundef %6)
  %8 = icmp eq ptr %7, null
  br i1 %8, label %.loopexit, label %9

9:                                                ; preds = %.lr.ph
  %10 = tail call i32 @OPENSSL_sk_num(ptr noundef nonnull %7) #8
  %11 = icmp sgt i32 %10, 0
  br i1 %11, label %.loopexit, label %12

12:                                               ; preds = %9
  tail call void @OPENSSL_sk_free(ptr noundef nonnull %7) #8
  %13 = getelementptr inbounds nuw i8, ptr %.017, i64 4
  %14 = load i32, ptr %13, align 4, !tbaa !46
  %.not = icmp eq i32 %14, 0
  br i1 %.not, label %._crit_edge, label %.lr.ph, !llvm.loop !47

._crit_edge:                                      ; preds = %12, %.preheader
  %15 = tail call ptr @OPENSSL_sk_new_null() #8
  br label %.loopexit

.loopexit:                                        ; preds = %9, %.lr.ph, %1, %._crit_edge
  %.011 = phi ptr [ %15, %._crit_edge ], [ null, %1 ], [ %7, %9 ], [ null, %.lr.ph ]
  ret ptr %.011
}